; Function Attrs: mustprogress uwtable
define dso_local void @_ZN24FunctionInvocationBinaryC2E10eBinaryOpsPK11SafeOpFlagsRNSt7__cxx1112basic_stringIcSt11char_traitsIcESaIcEEESA_(ptr noundef nonnull align 8 dereferenceable(128) %0, i32 noundef %1, ptr noundef %2, ptr noundef nonnull align 8 dereferenceable(32) %3, ptr noundef nonnull align 8 dereferenceable(32) %4) unnamed_addr #4 align 2 personality ptr @__gxx_personality_v0 {
  tail call void @_ZN18FunctionInvocationC2E15eInvocationTypePK11SafeOpFlags(ptr noundef nonnull align 8 dereferenceable(56) %0, i32 noundef 0, ptr noundef %2)
  store ptr getelementptr inbounds ({ [15 x ptr] }, ptr @_ZTV24FunctionInvocationBinary, i64 0, i32 0, i64 2), ptr %0, align 8
  %6 = getelementptr inbounds i8, ptr %0, i64 56
  store i32 %1, ptr %6, align 8
  %7 = getelementptr inbounds i8, ptr %0, i64 64
  invoke void @_ZNSt7__cxx1112basic_stringIcSt11char_traitsIcESaIcEEC1ERKS4_(ptr noundef nonnull align 8 dereferenceable(32) %7, ptr noundef nonnull align 8 dereferenceable(32) %3)
          to label %8 unwind label %11

8:                                                ; preds = %5
  %9 = getelementptr inbounds i8, ptr %0, i64 96
  invoke void @_ZNSt7__cxx1112basic_stringIcSt11char_traitsIcESaIcEEC1ERKS4_(ptr noundef nonnull align 8 dereferenceable(32) %9, ptr noundef nonnull align 8 dereferenceable(32) %4)
          to label %10 unwind label %13

10:                                               ; preds = %8
  ret void

11:                                               ; preds = %5
  %12 = landingpad { ptr, i32 }
          cleanup
  br label %15

13:                                               ; preds = %8
  %14 = landingpad { ptr, i32 }
          cleanup
  tail call void @_ZNSt7__cxx1112basic_stringIcSt11char_traitsIcESaIcEED1Ev(ptr noundef nonnull align 8 dereferenceable(32) %7) #15
  br label %15

15:                                               ; preds = %13, %11
  %.pn = phi { ptr, i32 } [ %14, %13 ], [ %12, %11 ]
  tail call void @_ZN18FunctionInvocationD2Ev(ptr noundef nonnull align 8 dereferenceable(56) %0) #15
  resume { ptr, i32 } %.pn
}